target datalayout = "e-m:e-p270:32:32-p271:32:32-p272:64:64-i64:64-i128:128-f80:128-n8:16:32:64-S128"
target triple = "x86_64-pc-linux-gnu"

%struct.lzma_lz_decoder = type { ptr, ptr, ptr, ptr, ptr }
%struct.lzma_next_coder_s = type { ptr, i64, i64, ptr, ptr, ptr, ptr, ptr, ptr, ptr }
%struct.lzma_lz_options = type { i64, ptr, i64 }
%struct.lzma_coder = type { %struct.lzma_dict, %struct.lzma_lz_decoder, %struct.lzma_next_coder_s, i8, i8, %struct.anon }
%struct.lzma_dict = type { ptr, i64, i64, i64, i64, i8, i8 }
%struct.anon = type { i64, i64, [4096 x i8] }
%struct.lzma_filter_info_s = type { i64, ptr, ptr }

; Function Attrs: nounwind uwtable
define internal void @lz_decoder_reset(ptr noundef %0) #0 {
  %2 = alloca ptr, align 8
  store ptr %0, ptr %2, align 8, !tbaa !9
  %3 = load ptr, ptr %2, align 8, !tbaa !9
  %4 = getelementptr inbounds nuw %struct.lzma_coder, ptr %3, i32 0, i32 0
  %5 = getelementptr inbounds nuw %struct.lzma_dict, ptr %4, i32 0, i32 1
  store i64 576, ptr %5, align 8, !tbaa !38
  %6 = load ptr, ptr %2, align 8, !tbaa !9
  %7 = getelementptr inbounds nuw %struct.lzma_coder, ptr %6, i32 0, i32 0
  %8 = getelementptr inbounds nuw %struct.lzma_dict, ptr %7, i32 0, i32 2
  store i64 0, ptr %8, align 8, !tbaa !39
  %9 = load ptr, ptr %2, align 8, !tbaa !9
  %10 = getelementptr inbounds nuw %struct.lzma_coder, ptr %9, i32 0, i32 0
  %11 = getelementptr inbounds nuw %struct.lzma_dict, ptr %10, i32 0, i32 0
  %12 = load ptr, ptr %11, align 8, !tbaa !17
  %13 = getelementptr inbounds i8, ptr %12, i64 575
  store i8 0, ptr %13, align 1, !tbaa !55
  %14 = load ptr, ptr %2, align 8, !tbaa !9
  %15 = getelementptr inbounds nuw %struct.lzma_coder, ptr %14, i32 0, i32 0
  %16 = getelementptr inbounds nuw %struct.lzma_dict, ptr %15, i32 0, i32 5
  store i8 0, ptr %16, align 8, !tbaa !56
  %17 = load ptr, ptr %2, align 8, !tbaa !9
  %18 = getelementptr inbounds nuw %struct.lzma_coder, ptr %17, i32 0, i32 0
  %19 = getelementptr inbounds nuw %struct.lzma_dict, ptr %18, i32 0, i32 6
  store i8 0, ptr %19, align 1, !tbaa !57
  ret void
}

; Function Attrs: nounwind uwtable
define dso_local i32 @lzma_lz_decoder_init(ptr noundef %0, ptr noundef %1, ptr noundef %2, ptr noundef %3) #0 {
  %5 = alloca i32, align 4
  %6 = alloca ptr, align 8
  %7 = alloca ptr, align 8
  %8 = alloca ptr, align 8
  %9 = alloca ptr, align 8
  %10 = alloca ptr, align 8
  %11 = alloca i32, align 4
  %12 = alloca %struct.lzma_lz_decoder, align 8
  %13 = alloca %struct.lzma_next_coder_s, align 8
  %14 = alloca %struct.lzma_lz_options, align 8
  %15 = alloca i32, align 4
  %16 = alloca i64, align 8
  %17 = alloca i64, align 8
  %18 = alloca i64, align 8
  store ptr %0, ptr %6, align 8, !tbaa !4
  store ptr %1, ptr %7, align 8, !tbaa !9
  store ptr %2, ptr %8, align 8, !tbaa !10
  store ptr %3, ptr %9, align 8, !tbaa !9
  call void @llvm.lifetime.start.p0(i64 8, ptr %10) #5
  %19 = load ptr, ptr %6, align 8, !tbaa !4
  %20 = getelementptr inbounds nuw %struct.lzma_next_coder_s, ptr %19, i32 0, i32 0
  %21 = load ptr, ptr %20, align 8, !tbaa !12
  store ptr %21, ptr %10, align 8, !tbaa !9
  %22 = load ptr, ptr %10, align 8, !tbaa !9
  %23 = icmp eq ptr %22, null
  br i1 %23, label %24, label %49

24:                                               ; preds = %4
  %25 = load ptr, ptr %7, align 8, !tbaa !9
  %26 = call ptr @lzma_alloc(i64 noundef 4288, ptr noundef %25)
  store ptr %26, ptr %10, align 8, !tbaa !9
  %27 = load ptr, ptr %10, align 8, !tbaa !9
  %28 = icmp eq ptr %27, null
  br i1 %28, label %29, label %30

29:                                               ; preds = %24
  store i32 5, ptr %5, align 4
  store i32 1, ptr %11, align 4
  br label %194

30:                                               ; preds = %24
  %31 = load ptr, ptr %10, align 8, !tbaa !9
  %32 = load ptr, ptr %6, align 8, !tbaa !4
  %33 = getelementptr inbounds nuw %struct.lzma_next_coder_s, ptr %32, i32 0, i32 0
  store ptr %31, ptr %33, align 8, !tbaa !12
  %34 = load ptr, ptr %6, align 8, !tbaa !4
  %35 = getelementptr inbounds nuw %struct.lzma_next_coder_s, ptr %34, i32 0, i32 3
  store ptr @lz_decode, ptr %35, align 8, !tbaa !15
  %36 = load ptr, ptr %6, align 8, !tbaa !4
  %37 = getelementptr inbounds nuw %struct.lzma_next_coder_s, ptr %36, i32 0, i32 4
  store ptr @lz_decoder_end, ptr %37, align 8, !tbaa !16
  %38 = load ptr, ptr %10, align 8, !tbaa !9
  %39 = getelementptr inbounds nuw %struct.lzma_coder, ptr %38, i32 0, i32 0
  %40 = getelementptr inbounds nuw %struct.lzma_dict, ptr %39, i32 0, i32 0
  store ptr null, ptr %40, align 8, !tbaa !17
  %41 = load ptr, ptr %10, align 8, !tbaa !9
  %42 = getelementptr inbounds nuw %struct.lzma_coder, ptr %41, i32 0, i32 0
  %43 = getelementptr inbounds nuw %struct.lzma_dict, ptr %42, i32 0, i32 4
  store i64 0, ptr %43, align 8, !tbaa !24
  %44 = load ptr, ptr %10, align 8, !tbaa !9
  %45 = getelementptr inbounds nuw %struct.lzma_coder, ptr %44, i32 0, i32 1
  call void @llvm.memset.p0.i64(ptr align 8 %12, i8 0, i64 40, i1 false)
  call void @llvm.memcpy.p0.p0.i64(ptr align 8 %45, ptr align 8 %12, i64 40, i1 false), !tbaa.struct !25
  %46 = load ptr, ptr %10, align 8, !tbaa !9
  %47 = getelementptr inbounds nuw %struct.lzma_coder, ptr %46, i32 0, i32 2
  call void @llvm.memset.p0.i64(ptr align 8 %13, i8 0, i64 80, i1 false)
  %48 = getelementptr inbounds nuw %struct.lzma_next_coder_s, ptr %13, i32 0, i32 1
  store i64 -1, ptr %48, align 8, !tbaa !26
  call void @llvm.memcpy.p0.p0.i64(ptr align 8 %47, ptr align 8 %13, i64 80, i1 false), !tbaa.struct !27
  br label %49

49:                                               ; preds = %30, %4
  call void @llvm.lifetime.start.p0(i64 24, ptr %14) #5
  br label %50

50:                                               ; preds = %49
  call void @llvm.lifetime.start.p0(i64 4, ptr %15) #5
  %51 = load ptr, ptr %9, align 8, !tbaa !9
  %52 = load ptr, ptr %10, align 8, !tbaa !9
  %53 = getelementptr inbounds nuw %struct.lzma_coder, ptr %52, i32 0, i32 1
  %54 = load ptr, ptr %7, align 8, !tbaa !9
  %55 = load ptr, ptr %8, align 8, !tbaa !10
  %56 = getelementptr inbounds %struct.lzma_filter_info_s, ptr %55, i64 0
  %57 = getelementptr inbounds nuw %struct.lzma_filter_info_s, ptr %56, i32 0, i32 0
  %58 = load i64, ptr %57, align 8, !tbaa !29
  %59 = load ptr, ptr %8, align 8, !tbaa !10
  %60 = getelementptr inbounds %struct.lzma_filter_info_s, ptr %59, i64 0
  %61 = getelementptr inbounds nuw %struct.lzma_filter_info_s, ptr %60, i32 0, i32 2
  %62 = load ptr, ptr %61, align 8, !tbaa !31
  %63 = call i32 %51(ptr noundef %53, ptr noundef %54, i64 noundef %58, ptr noundef %62, ptr noundef %14)
  store i32 %63, ptr %15, align 4, !tbaa !32
  %64 = load i32, ptr %15, align 4, !tbaa !32
  %65 = icmp ne i32 %64, 0
  br i1 %65, label %66, label %68

66:                                               ; preds = %50
  %67 = load i32, ptr %15, align 4, !tbaa !32
  store i32 %67, ptr %5, align 4
  store i32 1, ptr %11, align 4
  br label %69

68:                                               ; preds = %50
  store i32 0, ptr %11, align 4
  br label %69

69:                                               ; preds = %68, %66
  call void @llvm.lifetime.end.p0(i64 4, ptr %15) #5
  %70 = load i32, ptr %11, align 4
  switch i32 %70, label %193 [
    i32 0, label %71
  ]

71:                                               ; preds = %69
  br label %72

72:                                               ; preds = %71
  br label %73

73:                                               ; preds = %72
  %74 = getelementptr inbounds nuw %struct.lzma_lz_options, ptr %14, i32 0, i32 0
  %75 = load i64, ptr %74, align 8, !tbaa !34
  %76 = icmp ult i64 %75, 4096
  br i1 %76, label %77, label %79

77:                                               ; preds = %73
  %78 = getelementptr inbounds nuw %struct.lzma_lz_options, ptr %14, i32 0, i32 0
  store i64 4096, ptr %78, align 8, !tbaa !34
  br label %79

79:                                               ; preds = %77, %73
  %80 = getelementptr inbounds nuw %struct.lzma_lz_options, ptr %14, i32 0, i32 0
  %81 = load i64, ptr %80, align 8, !tbaa !34
  %82 = icmp ugt i64 %81, -592
  br i1 %82, label %83, label %84

83:                                               ; preds = %79
  store i32 5, ptr %5, align 4
  store i32 1, ptr %11, align 4
  br label %193

84:                                               ; preds = %79
  %85 = getelementptr inbounds nuw %struct.lzma_lz_options, ptr %14, i32 0, i32 0
  %86 = load i64, ptr %85, align 8, !tbaa !34
  %87 = add i64 %86, 15
  %88 = and i64 %87, -16
  %89 = getelementptr inbounds nuw %struct.lzma_lz_options, ptr %14, i32 0, i32 0
  store i64 %88, ptr %89, align 8, !tbaa !34
  call void @llvm.lifetime.start.p0(i64 8, ptr %16) #5
  %90 = getelementptr inbounds nuw %struct.lzma_lz_options, ptr %14, i32 0, i32 0
  %91 = load i64, ptr %90, align 8, !tbaa !34
  %92 = add i64 %91, 576
  store i64 %92, ptr %16, align 8, !tbaa !28
  %93 = load ptr, ptr %10, align 8, !tbaa !9
  %94 = getelementptr inbounds nuw %struct.lzma_coder, ptr %93, i32 0, i32 0
  %95 = getelementptr inbounds nuw %struct.lzma_dict, ptr %94, i32 0, i32 4
  %96 = load i64, ptr %95, align 8, !tbaa !24
  %97 = load i64, ptr %16, align 8, !tbaa !28
  %98 = icmp ne i64 %96, %97
  br i1 %98, label %99, label %122

99:                                               ; preds = %84
  %100 = load ptr, ptr %10, align 8, !tbaa !9
  %101 = getelementptr inbounds nuw %struct.lzma_coder, ptr %100, i32 0, i32 0
  %102 = getelementptr inbounds nuw %struct.lzma_dict, ptr %101, i32 0, i32 0
  %103 = load ptr, ptr %102, align 8, !tbaa !17
  %104 = load ptr, ptr %7, align 8, !tbaa !9
  call void @lzma_free(ptr noundef %103, ptr noundef %104)
  %105 = load i64, ptr %16, align 8, !tbaa !28
  %106 = load ptr, ptr %7, align 8, !tbaa !9
  %107 = call ptr @lzma_alloc(i64 noundef %105, ptr noundef %106)
  %108 = load ptr, ptr %10, align 8, !tbaa !9
  %109 = getelementptr inbounds nuw %struct.lzma_coder, ptr %108, i32 0, i32 0
  %110 = getelementptr inbounds nuw %struct.lzma_dict, ptr %109, i32 0, i32 0
  store ptr %107, ptr %110, align 8, !tbaa !17
  %111 = load ptr, ptr %10, align 8, !tbaa !9
  %112 = getelementptr inbounds nuw %struct.lzma_coder, ptr %111, i32 0, i32 0
  %113 = getelementptr inbounds nuw %struct.lzma_dict, ptr %112, i32 0, i32 0
  %114 = load ptr, ptr %113, align 8, !tbaa !17
  %115 = icmp eq ptr %114, null
  br i1 %115, label %116, label %117

116:                                              ; preds = %99
  store i32 5, ptr %5, align 4
  store i32 1, ptr %11, align 4
  br label %192

117:                                              ; preds = %99
  %118 = load i64, ptr %16, align 8, !tbaa !28
  %119 = load ptr, ptr %10, align 8, !tbaa !9
  %120 = getelementptr inbounds nuw %struct.lzma_coder, ptr %119, i32 0, i32 0
  %121 = getelementptr inbounds nuw %struct.lzma_dict, ptr %120, i32 0, i32 4
  store i64 %118, ptr %121, align 8, !tbaa !24
  br label %122

122:                                              ; preds = %117, %84
  %123 = load ptr, ptr %6, align 8, !tbaa !4
  %124 = getelementptr inbounds nuw %struct.lzma_next_coder_s, ptr %123, i32 0, i32 0
  %125 = load ptr, ptr %124, align 8, !tbaa !12
  call void @lz_decoder_reset(ptr noundef %125)
  %126 = getelementptr inbounds nuw %struct.lzma_lz_options, ptr %14, i32 0, i32 1
  %127 = load ptr, ptr %126, align 8, !tbaa !36
  %128 = icmp ne ptr %127, null
  br i1 %128, label %129, label %175

129:                                              ; preds = %122
  %130 = getelementptr inbounds nuw %struct.lzma_lz_options, ptr %14, i32 0, i32 2
  %131 = load i64, ptr %130, align 8, !tbaa !37
  %132 = icmp ugt i64 %131, 0
  br i1 %132, label %133, label %175

133:                                              ; preds = %129
  call void @llvm.lifetime.start.p0(i64 8, ptr %17) #5
  %134 = getelementptr inbounds nuw %struct.lzma_lz_options, ptr %14, i32 0, i32 2
  %135 = load i64, ptr %134, align 8, !tbaa !37
  %136 = getelementptr inbounds nuw %struct.lzma_lz_options, ptr %14, i32 0, i32 0
  %137 = load i64, ptr %136, align 8, !tbaa !34
  %138 = icmp ult i64 %135, %137
  br i1 %138, label %139, label %142

139:                                              ; preds = %133
  %140 = getelementptr inbounds nuw %struct.lzma_lz_options, ptr %14, i32 0, i32 2
  %141 = load i64, ptr %140, align 8, !tbaa !37
  br label %145

142:                                              ; preds = %133
  %143 = getelementptr inbounds nuw %struct.lzma_lz_options, ptr %14, i32 0, i32 0
  %144 = load i64, ptr %143, align 8, !tbaa !34
  br label %145

145:                                              ; preds = %142, %139
  %146 = phi i64 [ %141, %139 ], [ %144, %142 ]
  store i64 %146, ptr %17, align 8, !tbaa !28
  call void @llvm.lifetime.start.p0(i64 8, ptr %18) #5
  %147 = getelementptr inbounds nuw %struct.lzma_lz_options, ptr %14, i32 0, i32 2
  %148 = load i64, ptr %147, align 8, !tbaa !37
  %149 = load i64, ptr %17, align 8, !tbaa !28
  %150 = sub i64 %148, %149
  store i64 %150, ptr %18, align 8, !tbaa !28
  %151 = load ptr, ptr %10, align 8, !tbaa !9
  %152 = getelementptr inbounds nuw %struct.lzma_coder, ptr %151, i32 0, i32 0
  %153 = getelementptr inbounds nuw %struct.lzma_dict, ptr %152, i32 0, i32 0
  %154 = load ptr, ptr %153, align 8, !tbaa !17
  %155 = load ptr, ptr %10, align 8, !tbaa !9
  %156 = getelementptr inbounds nuw %struct.lzma_coder, ptr %155, i32 0, i32 0
  %157 = getelementptr inbounds nuw %struct.lzma_dict, ptr %156, i32 0, i32 1
  %158 = load i64, ptr %157, align 8, !tbaa !38
  %159 = getelementptr inbounds nuw i8, ptr %154, i64 %158
  %160 = getelementptr inbounds nuw %struct.lzma_lz_options, ptr %14, i32 0, i32 1
  %161 = load ptr, ptr %160, align 8, !tbaa !36
  %162 = load i64, ptr %18, align 8, !tbaa !28
  %163 = getelementptr inbounds nuw i8, ptr %161, i64 %162
  %164 = load i64, ptr %17, align 8, !tbaa !28
  call void @llvm.memcpy.p0.p0.i64(ptr align 1 %159, ptr align 1 %163, i64 %164, i1 false)
  %165 = load i64, ptr %17, align 8, !tbaa !28
  %166 = load ptr, ptr %10, align 8, !tbaa !9
  %167 = getelementptr inbounds nuw %struct.lzma_coder, ptr %166, i32 0, i32 0
  %168 = getelementptr inbounds nuw %struct.lzma_dict, ptr %167, i32 0, i32 1
  %169 = load i64, ptr %168, align 8, !tbaa !38
  %170 = add i64 %169, %165
  store i64 %170, ptr %168, align 8, !tbaa !38
  %171 = load i64, ptr %17, align 8, !tbaa !28
  %172 = load ptr, ptr %10, align 8, !tbaa !9
  %173 = getelementptr inbounds nuw %struct.lzma_coder, ptr %172, i32 0, i32 0
  %174 = getelementptr inbounds nuw %struct.lzma_dict, ptr %173, i32 0, i32 2
  store i64 %171, ptr %174, align 8, !tbaa !39
  call void @llvm.lifetime.end.p0(i64 8, ptr %18) #5
  call void @llvm.lifetime.end.p0(i64 8, ptr %17) #5
  br label %175

175:                                              ; preds = %145, %129, %122
  %176 = load ptr, ptr %10, align 8, !tbaa !9
  %177 = getelementptr inbounds nuw %struct.lzma_coder, ptr %176, i32 0, i32 3
  store i8 0, ptr %177, align 8, !tbaa !40
  %178 = load ptr, ptr %10, align 8, !tbaa !9
  %179 = getelementptr inbounds nuw %struct.lzma_coder, ptr %178, i32 0, i32 4
  store i8 0, ptr %179, align 1, !tbaa !41
  %180 = load ptr, ptr %10, align 8, !tbaa !9
  %181 = getelementptr inbounds nuw %struct.lzma_coder, ptr %180, i32 0, i32 5
  %182 = getelementptr inbounds nuw %struct.anon, ptr %181, i32 0, i32 0
  store i64 0, ptr %182, align 8, !tbaa !42
  %183 = load ptr, ptr %10, align 8, !tbaa !9
  %184 = getelementptr inbounds nuw %struct.lzma_coder, ptr %183, i32 0, i32 5
  %185 = getelementptr inbounds nuw %struct.anon, ptr %184, i32 0, i32 1
  store i64 0, ptr %185, align 8, !tbaa !43
  %186 = load ptr, ptr %10, align 8, !tbaa !9
  %187 = getelementptr inbounds nuw %struct.lzma_coder, ptr %186, i32 0, i32 2
  %188 = load ptr, ptr %7, align 8, !tbaa !9
  %189 = load ptr, ptr %8, align 8, !tbaa !10
  %190 = getelementptr inbounds %struct.lzma_filter_info_s, ptr %189, i64 1
  %191 = call i32 @lzma_next_filter_init(ptr noundef %187, ptr noundef %188, ptr noundef %190)
  store i32 %191, ptr %5, align 4
  store i32 1, ptr %11, align 4
  br label %192

192:                                              ; preds = %175, %116
  call void @llvm.lifetime.end.p0(i64 8, ptr %16) #5
  br label %193

193:                                              ; preds = %192, %83, %69
  call void @llvm.lifetime.end.p0(i64 24, ptr %14) #5
  br label %194

194:                                              ; preds = %193, %29
  call void @llvm.lifetime.end.p0(i64 8, ptr %10) #5
  %195 = load i32, ptr %5, align 4
  ret i32 %195
}