; Function Attrs: nounwind uwtable
define dso_local i32 @lzma_lz_decoder_init(ptr noundef captures(none) %0, ptr noundef %1, ptr noundef %2, ptr noundef readonly captures(none) %3) local_unnamed_addr #0 {
  %5 = alloca %struct.lzma_lz_options, align 8
  %6 = load ptr, ptr %0, align 8, !tbaa !4
  %7 = icmp eq ptr %6, null
  br i1 %7, label %8, label %17

8:                                                ; preds = %4
  %9 = tail call ptr @lzma_alloc(i64 noundef 4288, ptr noundef %1) #8
  %10 = icmp eq ptr %9, null
  br i1 %10, label %73, label %11

11:                                               ; preds = %8
  store ptr %9, ptr %0, align 8, !tbaa !4
  %12 = getelementptr inbounds nuw i8, ptr %0, i64 24
  store ptr @lz_decode, ptr %12, align 8, !tbaa !10
  %13 = getelementptr inbounds nuw i8, ptr %0, i64 32
  store ptr @lz_decoder_end, ptr %13, align 8, !tbaa !11
  store ptr null, ptr %9, align 8, !tbaa !12
  %14 = getelementptr inbounds nuw i8, ptr %9, i64 32
  store i64 0, ptr %14, align 8, !tbaa !19
  %15 = getelementptr inbounds nuw i8, ptr %9, i64 48
  tail call void @llvm.memset.p0.i64(ptr noundef nonnull align 8 dereferenceable(40) %15, i8 0, i64 40, i1 false)
  %16 = getelementptr inbounds nuw i8, ptr %9, i64 88
  store ptr null, ptr %16, align 8, !tbaa !20
  %.sroa.2.0..sroa_idx = getelementptr inbounds nuw i8, ptr %9, i64 96
  store i64 -1, ptr %.sroa.2.0..sroa_idx, align 8, !tbaa !21
  %.sroa.3.0..sroa_idx = getelementptr inbounds nuw i8, ptr %9, i64 104
  tail call void @llvm.memset.p0.i64(ptr noundef nonnull align 8 dereferenceable(64) %.sroa.3.0..sroa_idx, i8 0, i64 64, i1 false)
  br label %17

17:                                               ; preds = %11, %4
  %.049 = phi ptr [ %9, %11 ], [ %6, %4 ]
  call void @llvm.lifetime.start.p0(i64 24, ptr nonnull %5) #8
  %18 = getelementptr inbounds nuw i8, ptr %.049, i64 48
  %19 = load i64, ptr %2, align 8, !tbaa !22
  %20 = getelementptr inbounds nuw i8, ptr %2, i64 16
  %21 = load ptr, ptr %20, align 8, !tbaa !24
  %22 = call i32 %3(ptr noundef nonnull %18, ptr noundef %1, i64 noundef %19, ptr noundef %21, ptr noundef nonnull %5) #8
  %.not = icmp eq i32 %22, 0
  br i1 %.not, label %23, label %72

23:                                               ; preds = %17
  %24 = load i64, ptr %5, align 8, !tbaa !25
  %25 = icmp ult i64 %24, 4096
  br i1 %25, label %.thread, label %26

26:                                               ; preds = %23
  %27 = icmp ugt i64 %24, -592
  br i1 %27, label %72, label %.thread

.thread:                                          ; preds = %23, %26
  %28 = phi i64 [ %24, %26 ], [ 4096, %23 ]
  %29 = add nuw i64 %28, 15
  %30 = and i64 %29, -16
  store i64 %30, ptr %5, align 8, !tbaa !25
  %31 = add nuw i64 %30, 576
  %32 = getelementptr inbounds nuw i8, ptr %.049, i64 32
  %33 = load i64, ptr %32, align 8, !tbaa !19
  %.not57 = icmp eq i64 %33, %31
  br i1 %.not57, label %39, label %34

34:                                               ; preds = %.thread
  %35 = load ptr, ptr %.049, align 8, !tbaa !12
  call void @lzma_free(ptr noundef %35, ptr noundef %1) #8
  %36 = call ptr @lzma_alloc(i64 noundef %31, ptr noundef %1) #8
  store ptr %36, ptr %.049, align 8, !tbaa !12
  %37 = icmp eq ptr %36, null
  br i1 %37, label %72, label %38

38:                                               ; preds = %34
  store i64 %31, ptr %32, align 8, !tbaa !19
  br label %39

39:                                               ; preds = %38, %.thread
  %40 = load ptr, ptr %0, align 8, !tbaa !4
  %41 = getelementptr inbounds nuw i8, ptr %40, i64 8
  store i64 576, ptr %41, align 8, !tbaa !27
  %42 = getelementptr inbounds nuw i8, ptr %40, i64 16
  store i64 0, ptr %42, align 8, !tbaa !28
  %43 = load ptr, ptr %40, align 8, !tbaa !12
  %44 = getelementptr inbounds nuw i8, ptr %43, i64 575
  store i8 0, ptr %44, align 1, !tbaa !29
  %45 = getelementptr inbounds nuw i8, ptr %40, i64 40
  store i8 0, ptr %45, align 8, !tbaa !30
  %46 = getelementptr inbounds nuw i8, ptr %40, i64 41
  store i8 0, ptr %46, align 1, !tbaa !31
  %47 = getelementptr inbounds nuw i8, ptr %5, i64 8
  %48 = load ptr, ptr %47, align 8, !tbaa !32
  %49 = icmp ne ptr %48, null
  %50 = getelementptr inbounds nuw i8, ptr %5, i64 16
  %51 = load i64, ptr %50, align 8
  %52 = icmp ne i64 %51, 0
  %or.cond = select i1 %49, i1 %52, i1 false
  br i1 %or.cond, label %53, label %65

53:                                               ; preds = %39
  %54 = load i64, ptr %5, align 8, !tbaa !25
  %55 = call i64 @llvm.umin.i64(i64 %51, i64 %54)
  %56 = sub i64 %51, %55
  %57 = load ptr, ptr %.049, align 8, !tbaa !12
  %58 = getelementptr inbounds nuw i8, ptr %.049, i64 8
  %59 = load i64, ptr %58, align 8, !tbaa !27
  %60 = getelementptr inbounds nuw i8, ptr %57, i64 %59
  %61 = getelementptr inbounds nuw i8, ptr %48, i64 %56
  call void @llvm.memcpy.p0.p0.i64(ptr align 1 %60, ptr nonnull align 1 %61, i64 %55, i1 false)
  %62 = load i64, ptr %58, align 8, !tbaa !27
  %63 = add i64 %62, %55
  store i64 %63, ptr %58, align 8, !tbaa !27
  %64 = getelementptr inbounds nuw i8, ptr %.049, i64 16
  store i64 %55, ptr %64, align 8, !tbaa !28
  br label %65

65:                                               ; preds = %53, %39
  %66 = getelementptr inbounds nuw i8, ptr %.049, i64 168
  store i8 0, ptr %66, align 8, !tbaa !33
  %67 = getelementptr inbounds nuw i8, ptr %.049, i64 169
  store i8 0, ptr %67, align 1, !tbaa !34
  %68 = getelementptr inbounds nuw i8, ptr %.049, i64 176
  %69 = getelementptr inbounds nuw i8, ptr %.049, i64 88
  %70 = getelementptr inbounds nuw i8, ptr %2, i64 24
  call void @llvm.memset.p0.i64(ptr noundef nonnull align 8 dereferenceable(16) %68, i8 0, i64 16, i1 false)
  %71 = call i32 @lzma_next_filter_init(ptr noundef nonnull %69, ptr noundef %1, ptr noundef nonnull %70) #8
  br label %72

72:                                               ; preds = %65, %34, %26, %17
  %.2 = phi i32 [ %22, %17 ], [ 5, %26 ], [ %71, %65 ], [ 5, %34 ]
  call void @llvm.lifetime.end.p0(i64 24, ptr nonnull %5) #8
  br label %73

73:                                               ; preds = %8, %72
  %.0 = phi i32 [ %.2, %72 ], [ 5, %8 ]
  ret i32 %.0
}